target datalayout = "e-m:e-p270:32:32-p271:32:32-p272:64:64-i64:64-i128:128-f80:128-n8:16:32:64-S128"
target triple = "x86_64-pc-linux-gnu"

@.str.30 = private unnamed_addr constant [9 x i8] c"cf-ray: \00", align 1

; Function Attrs: nounwind uwtable
define i64 @HeaderCallback(ptr noundef %0, i64 noundef %1, i64 noundef %2, ptr noundef %3) #0 {
  %5 = alloca ptr, align 8
  %6 = alloca i64, align 8
  %7 = alloca i64, align 8
  %8 = alloca ptr, align 8
  %9 = alloca ptr, align 8
  %10 = alloca i64, align 8
  %11 = alloca ptr, align 8
  store ptr %0, ptr %5, align 8, !tbaa !12
  store i64 %1, ptr %6, align 8, !tbaa !7
  store i64 %2, ptr %7, align 8, !tbaa !7
  store ptr %3, ptr %8, align 8, !tbaa !20
  call void @llvm.lifetime.start.p0(i64 8, ptr %9) #13
  store ptr @.str.30, ptr %9, align 8, !tbaa !12
  call void @llvm.lifetime.start.p0(i64 8, ptr %10) #13
  %12 = load i64, ptr %6, align 8, !tbaa !7
  %13 = load i64, ptr %7, align 8, !tbaa !7
  %14 = mul i64 %12, %13
  store i64 %14, ptr %10, align 8, !tbaa !7
  %15 = load i64, ptr %10, align 8, !tbaa !7
  %16 = icmp uge i64 %15, 28
  br i1 %16, label %17, label %29

17:                                               ; preds = %4
  %18 = load ptr, ptr %5, align 8, !tbaa !12
  %19 = call i32 @strncmp(ptr noundef @.str.30, ptr noundef %18, i64 noundef 8) #15
  %20 = icmp eq i32 0, %19
  br i1 %20, label %21, label %28

21:                                               ; preds = %17
  call void @llvm.lifetime.start.p0(i64 8, ptr %11) #13
  %22 = load ptr, ptr %8, align 8, !tbaa !20
  store ptr %22, ptr %11, align 8, !tbaa !12
  %23 = load ptr, ptr %11, align 8, !tbaa !12
  %24 = load ptr, ptr %5, align 8, !tbaa !12
  %25 = getelementptr inbounds nuw i8, ptr %24, i64 8
  call void @llvm.memcpy.p0.p0.i64(ptr align 1 %23, ptr align 1 %25, i64 20, i1 false)
  %26 = load ptr, ptr %11, align 8, !tbaa !12
  %27 = getelementptr inbounds i8, ptr %26, i64 20
  store i8 0, ptr %27, align 1, !tbaa !19
  call void @llvm.lifetime.end.p0(i64 8, ptr %11) #13
  br label %28

28:                                               ; preds = %21, %17
  br label %29

29:                                               ; preds = %28, %4
  %30 = load i64, ptr %6, align 8, !tbaa !7
  %31 = load i64, ptr %7, align 8, !tbaa !7
  %32 = mul i64 %30, %31
  call void @llvm.lifetime.end.p0(i64 8, ptr %10) #13
  call void @llvm.lifetime.end.p0(i64 8, ptr %9) #13
  ret i64 %32
}