; Function Attrs: mustprogress nofree nounwind willreturn memory(argmem: readwrite) uwtable
define noundef i64 @HeaderCallback(ptr noundef readonly captures(none) %0, i64 noundef %1, i64 noundef %2, ptr noundef writeonly captures(none) %3) #11 {
  %5 = mul i64 %2, %1
  %6 = icmp ugt i64 %5, 27
  br i1 %6, label %7, label %13

7:                                                ; preds = %4
  %8 = tail call i32 @strncmp(ptr noundef nonnull dereferenceable(9) @.str.30, ptr noundef nonnull dereferenceable(1) %0, i64 noundef 8) #28
  %9 = icmp eq i32 %8, 0
  br i1 %9, label %10, label %13

10:                                               ; preds = %7
  %11 = getelementptr inbounds nuw i8, ptr %0, i64 8
  tail call void @llvm.memcpy.p0.p0.i64(ptr noundef nonnull align 1 dereferenceable(20) %3, ptr noundef nonnull align 1 dereferenceable(20) %11, i64 20, i1 false)
  %12 = getelementptr inbounds nuw i8, ptr %3, i64 20
  store i8 0, ptr %12, align 1, !tbaa !16
  br label %13

13:                                               ; preds = %7, %10, %4
  ret i64 %5
}